; Function Attrs: mustprogress noreturn uwtable
define void @_ZN12ErrorHandler9SeekErrorEPKw(ptr nocapture noundef nonnull align 4 dereferenceable(14) %0, ptr noundef %1) local_unnamed_addr #1 align 2 {
  %3 = alloca %class.uiMsgStore, align 8
  %4 = getelementptr inbounds i8, ptr %0, i64 12
  %5 = load i8, ptr %4, align 4
  %6 = trunc i8 %5 to i1
  br i1 %6, label %13, label %7

7:                                                ; preds = %2
  call void @llvm.lifetime.start.p0(i64 112, ptr nonnull %3)
  br label %8

8:                                                ; preds = %8, %7
  %indvars.iv.i.i = phi i64 [ 0, %7 ], [ %indvars.iv.next.i.i, %8 ]
  %9 = getelementptr inbounds [8 x ptr], ptr %3, i64 0, i64 %indvars.iv.i.i
  store ptr @.str, ptr %9, align 8
  %indvars.iv.next.i.i = add nuw nsw i64 %indvars.iv.i.i, 1
  %exitcond.not.i.i = icmp eq i64 %indvars.iv.next.i.i, 8
  br i1 %exitcond.not.i.i, label %_Z5uiMsgIJRPKwEEv14UIMESSAGE_CODEDpOT_.exit, label %8, !llvm.loop !4

_Z5uiMsgIJRPKwEEv14UIMESSAGE_CODEDpOT_.exit:      ; preds = %8
  %10 = getelementptr inbounds i8, ptr %3, i64 64
  %11 = getelementptr inbounds i8, ptr %3, i64 104
  call void @llvm.memset.p0.i64(ptr noundef nonnull align 8 dereferenceable(40) %10, i8 0, i64 40, i1 false)
  store i32 11, ptr %11, align 8
  %12 = getelementptr inbounds i8, ptr %3, i64 96
  store i32 1, ptr %12, align 8
  store ptr %1, ptr %3, align 8
  call void @_ZN10uiMsgStore3MsgEv(ptr noundef nonnull align 8 dereferenceable(108) %3)
  call void @llvm.lifetime.end.p0(i64 112, ptr nonnull %3)
  br label %13

13:                                               ; preds = %_Z5uiMsgIJRPKwEEv14UIMESSAGE_CODEDpOT_.exit, %2
  call void @_Z7uiAlarm12UIALARM_TYPE(i32 noundef 0)
  %14 = load i32, ptr %0, align 4
  %switch.i = icmp ult i32 %14, 2
  br i1 %switch.i, label %.sink.split.i, label %_ZN12ErrorHandler12SetErrorCodeE8RAR_EXIT.exit

.sink.split.i:                                    ; preds = %13
  store i32 2, ptr %0, align 4
  br label %_ZN12ErrorHandler12SetErrorCodeE8RAR_EXIT.exit

_ZN12ErrorHandler12SetErrorCodeE8RAR_EXIT.exit:   ; preds = %13, %.sink.split.i
  %15 = getelementptr inbounds i8, ptr %0, i64 4
  %16 = load i32, ptr %15, align 4
  %17 = add i32 %16, 1
  store i32 %17, ptr %15, align 4
  %18 = call ptr @__cxa_allocate_exception(i64 4) #15
  store i32 2, ptr %18, align 16
  call void @__cxa_throw(ptr nonnull %18, ptr nonnull @_ZTI8RAR_EXIT, ptr null) #16
  unreachable
}